; Function Attrs: mustprogress nofree norecurse nosync nounwind memory(readwrite, inaccessiblemem: none) uwtable
define dso_local noundef nonnull align 8 dereferenceable(12) ptr @_ZN4llvm5APIntpLEm(ptr noundef nonnull returned align 8 dereferenceable(12) %0, i64 noundef %1) local_unnamed_addr #4 align 2 {
  %3 = getelementptr inbounds nuw i8, ptr %0, i64 8
  %4 = load i32, ptr %3, align 8
  %5 = icmp ult i32 %4, 65
  br i1 %5, label %_ZN4llvm5APInt9tcAddPartEPmmj.exit.thread, label %.lr.ph.preheader.i

_ZN4llvm5APInt9tcAddPartEPmmj.exit.thread:        ; preds = %2
  %6 = load i64, ptr %0, align 8
  %7 = add i64 %6, %1
  store i64 %7, ptr %0, align 8
  %8 = add nuw nsw i32 %4, 63
  %9 = and i32 %8, 63
  %10 = xor i32 %9, 63
  %11 = zext nneg i32 %10 to i64
  %12 = lshr i64 -1, %11
  br label %26

.lr.ph.preheader.i:                               ; preds = %2
  %13 = load ptr, ptr %0, align 8
  %14 = zext i32 %4 to i64
  %15 = add nuw nsw i64 %14, 63
  %16 = lshr i64 %15, 6
  br label %.lr.ph.i

.lr.ph.i:                                         ; preds = %.lr.ph.i, %.lr.ph.preheader.i
  %indvars.iv.i = phi i64 [ 0, %.lr.ph.preheader.i ], [ %indvars.iv.next.i, %.lr.ph.i ]
  %.01011.i = phi i64 [ %1, %.lr.ph.preheader.i ], [ 1, %.lr.ph.i ]
  %17 = getelementptr inbounds nuw i64, ptr %13, i64 %indvars.iv.i
  %18 = load i64, ptr %17, align 8
  %19 = add i64 %18, %.01011.i
  store i64 %19, ptr %17, align 8
  %.not.i = icmp uge i64 %19, %.01011.i
  %indvars.iv.next.i = add nuw nsw i64 %indvars.iv.i, 1
  %exitcond.not.i = icmp eq i64 %indvars.iv.next.i, %16
  %or.cond = select i1 %.not.i, i1 true, i1 %exitcond.not.i
  br i1 %or.cond, label %_ZN4llvm5APInt9tcAddPartEPmmj.exit, label %.lr.ph.i, !llvm.loop !6

_ZN4llvm5APInt9tcAddPartEPmmj.exit:               ; preds = %.lr.ph.i
  %.pre = load i32, ptr %3, align 8
  %20 = add i32 %.pre, 63
  %21 = and i32 %20, 63
  %22 = xor i32 %21, 63
  %23 = zext nneg i32 %22 to i64
  %24 = lshr i64 -1, %23
  %25 = icmp ult i32 %.pre, 65
  br i1 %25, label %26, label %32

26:                                               ; preds = %_ZN4llvm5APInt9tcAddPartEPmmj.exit.thread, %_ZN4llvm5APInt9tcAddPartEPmmj.exit
  %27 = phi i64 [ %12, %_ZN4llvm5APInt9tcAddPartEPmmj.exit.thread ], [ %24, %_ZN4llvm5APInt9tcAddPartEPmmj.exit ]
  %28 = phi i32 [ %4, %_ZN4llvm5APInt9tcAddPartEPmmj.exit.thread ], [ %.pre, %_ZN4llvm5APInt9tcAddPartEPmmj.exit ]
  %29 = icmp eq i32 %28, 0
  %spec.store.select.i = select i1 %29, i64 0, i64 %27
  %30 = load i64, ptr %0, align 8
  %31 = and i64 %30, %spec.store.select.i
  store i64 %31, ptr %0, align 8
  br label %_ZN4llvm5APInt15clearUnusedBitsEv.exit

32:                                               ; preds = %_ZN4llvm5APInt9tcAddPartEPmmj.exit
  %33 = load ptr, ptr %0, align 8
  %34 = zext i32 %.pre to i64
  %35 = add nuw nsw i64 %34, 63
  %36 = lshr i64 %35, 6
  %37 = add nuw nsw i64 %36, 4294967295
  %38 = and i64 %37, 4294967295
  %39 = getelementptr inbounds nuw i64, ptr %33, i64 %38
  %40 = load i64, ptr %39, align 8
  %41 = and i64 %40, %24
  store i64 %41, ptr %39, align 8
  br label %_ZN4llvm5APInt15clearUnusedBitsEv.exit

_ZN4llvm5APInt15clearUnusedBitsEv.exit:           ; preds = %26, %32
  ret ptr %0
}